	.file	"stack-heap.c"
	.intel_syntax noprefix
	.text
	.globl	hello
	.type	hello, @function
hello:
.LFB0:
	.cfi_startproc
	push	rbp
	.cfi_def_cfa_offset 16
	.cfi_offset 6, -16
	mov	rbp, rsp
	.cfi_def_cfa_register 6
	mov	DWORD PTR -4[rbp], 100
	mov	eax, DWORD PTR -4[rbp]
	pop	rbp
	.cfi_def_cfa 7, 8
	ret
	.cfi_endproc
.LFE0:
	.size	hello, .-hello
	.globl	main
	.type	main, @function
main:
.LFB1:
	.cfi_startproc
	push	rbp
	.cfi_def_cfa_offset 16
	.cfi_offset 6, -16
	mov	rbp, rsp
	.cfi_def_cfa_register 6
	sub	rsp, 32
	mov	rax, QWORD PTR fs:40
	mov	QWORD PTR -8[rbp], rax
	xor	eax, eax
	mov	DWORD PTR -28[rbp], -3
	mov	DWORD PTR -24[rbp], 12345
	lea	rax, -28[rbp]
	mov	QWORD PTR -16[rbp], rax
	mov	eax, 0
	call	hello
	mov	DWORD PTR -20[rbp], eax
	mov	eax, 0
	mov	rdx, QWORD PTR -8[rbp]
	xor	rdx, QWORD PTR fs:40
	je	.L5
	call	__stack_chk_fail@PLT
.L5:
	leave
	.cfi_def_cfa 7, 8
	ret
	.cfi_endproc
.LFE1:
	.size	main, .-main
	.ident	"GCC: (Ubuntu 7.5.0-3ubuntu1~18.04) 7.5.0"
	.section	.note.GNU-stack,"",@progbits
